target datalayout = "e-m:e-p270:32:32-p271:32:32-p272:64:64-i64:64-i128:128-f80:128-n8:16:32:64-S128"
target triple = "x86_64-pc-linux-gnu"

%struct.QueryOperator = type { i8, i8, i16, i32 }
%struct.TSQueryParserStateData = type { ptr, ptr, ptr, i32, i32, ptr, ptr, ptr, i32, i32, ptr, ptr }

; Function Attrs: nounwind uwtable
define dso_local void @pushOperator(ptr noundef %0, i8 noundef signext %1, i16 noundef signext %2) #0 {
  %4 = alloca ptr, align 8
  %5 = alloca i8, align 1
  %6 = alloca i16, align 2
  %7 = alloca ptr, align 8
  store ptr %0, ptr %4, align 8
  store i8 %1, ptr %5, align 1
  store i16 %2, ptr %6, align 2
  call void @llvm.lifetime.start.p0(i64 8, ptr %7) #11
  %8 = call ptr @palloc0(i64 noundef 8)
  store ptr %8, ptr %7, align 8
  %9 = load ptr, ptr %7, align 8
  %10 = getelementptr inbounds nuw %struct.QueryOperator, ptr %9, i32 0, i32 0
  store i8 2, ptr %10, align 4
  %11 = load i8, ptr %5, align 1
  %12 = load ptr, ptr %7, align 8
  %13 = getelementptr inbounds nuw %struct.QueryOperator, ptr %12, i32 0, i32 1
  store i8 %11, ptr %13, align 1
  %14 = load i8, ptr %5, align 1
  %15 = sext i8 %14 to i32
  %16 = icmp eq i32 %15, 4
  br i1 %16, label %17, label %20

17:                                               ; preds = %3
  %18 = load i16, ptr %6, align 2
  %19 = sext i16 %18 to i32
  br label %21

20:                                               ; preds = %3
  br label %21

21:                                               ; preds = %20, %17
  %22 = phi i32 [ %19, %17 ], [ 0, %20 ]
  %23 = trunc i32 %22 to i16
  %24 = load ptr, ptr %7, align 8
  %25 = getelementptr inbounds nuw %struct.QueryOperator, ptr %24, i32 0, i32 2
  store i16 %23, ptr %25, align 2
  %26 = load ptr, ptr %7, align 8
  %27 = load ptr, ptr %4, align 8
  %28 = getelementptr inbounds nuw %struct.TSQueryParserStateData, ptr %27, i32 0, i32 5
  %29 = load ptr, ptr %28, align 8
  %30 = call ptr @lcons(ptr noundef %26, ptr noundef %29)
  %31 = load ptr, ptr %4, align 8
  %32 = getelementptr inbounds nuw %struct.TSQueryParserStateData, ptr %31, i32 0, i32 5
  store ptr %30, ptr %32, align 8
  call void @llvm.lifetime.end.p0(i64 8, ptr %7) #11
  ret void
}