; Function Attrs: nounwind uwtable
define dso_local void @pushOperator(ptr noundef captures(none) %0, i8 noundef signext %1, i16 noundef signext %2) local_unnamed_addr #0 {
  %4 = tail call ptr @palloc0(i64 noundef 8) #12
  store i8 2, ptr %4, align 4
  %5 = getelementptr inbounds nuw i8, ptr %4, i64 1
  store i8 %1, ptr %5, align 1
  %6 = icmp eq i8 %1, 4
  %7 = select i1 %6, i16 %2, i16 0
  %8 = getelementptr inbounds nuw i8, ptr %4, i64 2
  store i16 %7, ptr %8, align 2
  %9 = getelementptr inbounds nuw i8, ptr %0, i64 32
  %10 = load ptr, ptr %9, align 8
  %11 = tail call ptr @lcons(ptr noundef nonnull %4, ptr noundef %10) #12
  store ptr %11, ptr %9, align 8
  ret void
}